; Function Attrs: mustprogress uwtable
define void @_ZN3nix39ValuePrintingTests_ansiColorsFloat_Test8TestBodyEv(ptr noundef nonnull align 8 dereferenceable(1272) %0) unnamed_addr #4 align 2 {
  %2 = alloca %"struct.nix::Value", align 8
  %3 = alloca %"struct.nix::PrintOptions", align 8
  store i32 16, ptr %2, align 8
  %.sroa.23.0..sroa_idx = getelementptr inbounds i8, ptr %2, i64 8
  store double 1.600000e+00, ptr %.sroa.23.0..sroa_idx, align 8
  %.sroa.3.0..sroa_idx = getelementptr inbounds i8, ptr %2, i64 16
  store i64 0, ptr %.sroa.3.0..sroa_idx, align 8
  store <4 x i8> <i8 1, i8 0, i8 0, i8 1>, ptr %3, align 8
  %4 = getelementptr inbounds i8, ptr %3, i64 8
  %5 = getelementptr inbounds i8, ptr %3, i64 40
  call void @llvm.memset.p0.i64(ptr noundef nonnull align 8 dereferenceable(32) %4, i8 -1, i64 32, i1 false)
  store i64 0, ptr %5, align 8
  tail call void @_ZN3nix18ValuePrintingTests4testIJNS_12PrintOptionsEEEEvNS_5ValueESt17basic_string_viewIcSt11char_traitsIcEEDpT_(ptr noundef nonnull align 8 dereferenceable(1272) %0, ptr noundef nonnull byval(%"struct.nix::Value") align 8 %2, i64 14, ptr nonnull @.str.92, ptr noundef nonnull byval(%"struct.nix::PrintOptions") align 8 %3)
  ret void
}